(dp1
S'D:\\Private\\enos\\english\\sentences.txt'
p2
F1473303968.6151335
s.(dp1
S'D:\\Private\\enos\\english\\sentences.txt'
p2
F1473303968.6151335
s.(dp1
S'D:\\Private\\enos\\english\\sentences.txt'
p2
F1473303968.6151335
s.(dp1
S'D:\\Private\\enos\\english\\sentences.txt'
p2
F1473303968.6151335
s.(dp1
S'D:\\Private\\enos\\english\\sentences.txt'
p2
F1473303968.6151335
s.(dp1
S'D:\\Private\\enos\\english\\sentences.txt'
p2
F1473303968.6151335
s.(dp1
S'D:\\Private\\enos\\english\\sentences.txt'
p2
F1473303968.6151335
s.(dp1
S'D:\\Private\\enos\\english\\sentences.txt'
p2
F1473303968.6151335
s.(dp1
S'D:\\Private\\enos\\english\\sentences.txt'
p2
F1473303968.6151335
s.(dp1
S'D:\\Private\\enos\\english\\sentences.txt'
p2
F1473303968.6151335
s.(dp1
S'D:\\Private\\enos\\english\\sentences.txt'
p2
F1473303968.6151335
s.(dp1
S'D:\\Private\\enos\\english\\sentences.txt'
p2
F1473303968.6151335
s.(dp1
S'D:\\Private\\enos\\english\\sentences.txt'
p2
F1473303968.6151335
s.(dp1
S'D:\\Private\\enos\\english\\sentences.txt'
p2
F1473303968.6151335
s.(dp1
S'D:\\Private\\enos\\english\\sentences.txt'
p2
F1473303968.6151335
s.(dp1
S'D:\\Private\\enos\\english\\sentences.txt'
p2
F1473303968.6151335
s.(dp1
S'D:\\Private\\enos\\english\\sentences.txt'
p2
F1473303968.6151335
s.(dp1
S'D:\\Private\\enos\\english\\sentences.txt'
p2
F1473303968.6151335
s.(dp1
S'D:\\Private\\enos\\english\\sentences.txt'
p2
F1473303968.6151335
s.(dp1
S'D:\\Private\\enos\\english\\sentences.txt'
p2
F1473303968.6151335
s.(dp1
S'D:\\Private\\enos\\english\\sentences.txt'
p2
F1473303968.6151335
s.(dp1
S'D:\\Private\\enos\\english\\sentences.txt'
p2
F1473303968.6151335
s.(dp1
S'D:\\Private\\enos\\english\\sentences.txt'
p2
F1473303968.6151335
s.(dp1
S'D:\\Private\\enos\\english\\sentences.txt'
p2
F1473303968.6151335
s.(dp1
S'D:\\Private\\enos\\english\\sentences.txt'
p2
F1473303968.6151335
s.(dp1
S'D:\\Private\\enos\\english\\sentences.txt'
p2
F1473303968.6151335
s.(dp1
S'D:\\Private\\enos\\english\\sentences.txt'
p2
F1473303968.6151335
s.(dp1
S'D:\\Private\\enos\\english\\sentences.txt'
p2
F1473303968.6151335
s.(dp1
S'D:\\Private\\enos\\english\\sentences.txt'
p2
F1473303968.6151335
s.(dp1
S'D:\\Private\\enos\\english\\sentences.txt'
p2
F1473303968.6151335
s.(dp1
S'D:\\Private\\enos\\english\\sentences.txt'
p2
F1473303968.6151335
s.(dp1
S'D:\\Private\\enos\\english\\sentences.txt'
p2
F1473303968.6151335
s.(dp1
S'D:\\Private\\enos\\english\\sentences.txt'
p2
F1473303968.6151335
s.(dp1
S'D:\\Private\\enos\\english\\sentences.txt'
p2
F1473303968.6151335
s.(dp1
S'D:\\Private\\enos\\english\\sentences.txt'
p2
F1473303968.6151335
s.(dp1
S'D:\\Private\\enos\\english\\sentences.txt'
p2
F1473303968.6151335
s.(dp1
S'D:\\Private\\enos\\english\\sentences.txt'
p2
F1473303968.6151335
s.(dp1
S'D:\\Private\\enos\\english\\sentences.txt'
p2
F1473303968.6151335
s.(dp1
S'D:\\Private\\enos\\english\\sentences.txt'
p2
F1473303968.6151335
s.(dp1
S'D:\\Private\\enos\\english\\sentences.txt'
p2
F1473303968.6151335
s.(dp1
S'D:\\Private\\enos\\english\\sentences.txt'
p2
F1473303968.6151335
s.(dp1
S'D:\\Private\\enos\\english\\sentences.txt'
p2
F1473303968.6151335
s.(dp1
S'D:\\Private\\enos\\english\\sentences.txt'
p2
F1473303968.6151335
s.(dp1
S'D:\\Private\\enos\\english\\sentences.txt'
p2
F1473303968.6151335
s.(dp1
S'D:\\Private\\enos\\english\\sentences.txt'
p2
F1473303968.6151335
s.(dp1
S'D:\\Private\\enos\\english\\sentences.txt'
p2
F1473303968.6151335
s.(dp1
S'D:\\Private\\enos\\english\\sentences.txt'
p2
F1473303968.6151335
s.(dp1
S'D:\\Private\\enos\\english\\sentences.txt'
p2
F1473303968.6151335
s.(dp1
S'D:\\Private\\enos\\english\\sentences.txt'
p2
F1473303968.6151335
s.(dp1
S'D:\\Private\\enos\\english\\sentences.txt'
p2
F1473303968.6151335
s.(dp1
S'D:\\Private\\enos\\english\\sentences.txt'
p2
F1473303968.6151335
s.(dp1
S'D:\\Private\\enos\\english\\sentences.txt'
p2
F1473303968.6151335
s.(dp1
S'D:\\Private\\enos\\english\\sentences.txt'
p2
F1473303968.6151335
s.(dp1
S'D:\\Private\\enos\\english\\sentences.txt'
p2
F1473303968.6151335
s.(dp1
S'D:\\Private\\enos\\english\\sentences.txt'
p2
F1473303968.6151335
s.(dp1
S'D:\\Private\\enos\\english\\sentences.txt'
p2
F1473303968.6151335
s.(dp1
S'D:\\Private\\enos\\english\\sentences.txt'
p2
F1473303968.6151335
s.(dp1
S'D:\\Private\\enos\\english\\sentences.txt'
p2
F1473303968.6151335
s.(dp1
S'D:\\Private\\enos\\english\\sentences.txt'
p2
F1473303968.6151335
s.(dp1
S'D:\\Private\\enos\\english\\sentences.txt'
p2
F1473303968.6151335
s.(dp1
S'D:\\Private\\enos\\english\\sentences.txt'
p2
F1473303968.6151335
s.(dp1
S'D:\\Private\\enos\\english\\sentences.txt'
p2
F1473303968.6151335
s.(dp1
S'D:\\Private\\enos\\english\\sentences.txt'
p2
F1473303968.6151335
s.(dp1
S'D:\\Private\\enos\\english\\sentences.txt'
p2
F1473303968.6151335
s.(dp1
S'D:\\Private\\enos\\english\\sentences.txt'
p2
F1473303968.6151335
s.(dp1
S'D:\\Private\\enos\\english\\sentences.txt'
p2
F1473304264.0808024
s.(dp1
S'D:\\Private\\enos\\english\\sentences.txt'
p2
F1473304264.0808024
s.(dp1
S'D:\\Private\\enos\\english\\sentences.txt'
p2
F1473304266.7588072
s.(dp1
S'D:\\Private\\enos\\english\\sentences.txt'
p2
F1473304266.9938083
s.(dp1
S'D:\\Private\\enos\\english\\sentences.txt'
p2
F1473304266.9938083
s.(dp1
S'D:\\Private\\enos\\english\\sentences.txt'
p2
F1473304266.9938083
s.(dp1
S'D:\\Private\\enos\\english\\sentences.txt'
p2
F1473304266.9938083
s.(dp1
S'D:\\Private\\enos\\english\\sentences.txt'
p2
F1473304266.9938083
s.(dp1
S'D:\\Private\\enos\\english\\sentences.txt'
p2
F1473304266.9938083
s.(dp1
S'D:\\Private\\enos\\english\\sentences.txt'
p2
F1473304266.9938083
s.(dp1
S'D:\\Private\\enos\\english\\sentences.txt'
p2
F1473304266.9938083
s.(dp1
S'D:\\Private\\enos\\english\\sentences.txt'
p2
F1473304266.9938083
s.(dp1
S'D:\\Private\\enos\\english\\sentences.txt'
p2
F1473304266.9938083
s.(dp1
S'D:\\Private\\enos\\english\\sentences.txt'
p2
F1473304266.9938083
s.(dp1
S'D:\\Private\\enos\\english\\sentences.txt'
p2
F1473304266.9938083
s.(dp1
S'D:\\Private\\enos\\english\\sentences.txt'
p2
F1473304266.9938083
s.(dp1
S'D:\\Private\\enos\\english\\sentences.txt'
p2
F1473304266.9938083
s.(dp1
S'D:\\Private\\enos\\english\\sentences.txt'
p2
F1473304266.9938083
s.(dp1
S'D:\\Private\\enos\\english\\sentences.txt'
p2
F1473304266.9938083
s.(dp1
S'D:\\Private\\enos\\english\\sentences.txt'
p2
F1473304266.9938083
s.(dp1
S'D:\\Private\\enos\\english\\sentences.txt'
p2
F1473304266.9938083
s.(dp1
S'D:\\Private\\enos\\english\\sentences.txt'
p2
F1473304266.9938083
s.